; Function Attrs: nounwind uwtable
define dso_local range(i32 -30, 1) i32 @archive_write_add_filter_uuencode(ptr noundef %0) local_unnamed_addr #0 {
  %2 = tail call ptr @__archive_write_allocate_filter(ptr noundef %0) #6
  %3 = tail call i32 @__archive_check_magic(ptr noundef %0, i32 noundef -1329217314, i32 noundef 1, ptr noundef nonnull @.str) #6
  %.not = icmp eq i32 %3, -30
  br i1 %.not, label %21, label %4

4:                                                ; preds = %1
  %5 = tail call noalias dereferenceable_or_null(120) ptr @calloc(i64 noundef 1, i64 noundef 120) #7
  %6 = icmp eq ptr %5, null
  br i1 %6, label %7, label %10

7:                                                ; preds = %4
  %8 = getelementptr inbounds nuw i8, ptr %2, i64 8
  %9 = load ptr, ptr %8, align 8, !tbaa !4
  tail call void (ptr, i32, ptr, ...) @archive_set_error(ptr noundef %9, i32 noundef 12, ptr noundef nonnull @.str.1) #6
  br label %21

10:                                               ; preds = %4
  %11 = getelementptr inbounds nuw i8, ptr %5, i64 8
  %12 = tail call ptr @archive_strncat(ptr noundef nonnull %11, ptr noundef nonnull @.str.2, i64 noundef 1) #6
  store i32 420, ptr %5, align 8, !tbaa !14
  %13 = getelementptr inbounds nuw i8, ptr %2, i64 72
  store ptr %5, ptr %13, align 8, !tbaa !17
  %14 = getelementptr inbounds nuw i8, ptr %2, i64 80
  store ptr @.str.3, ptr %14, align 8, !tbaa !18
  %15 = getelementptr inbounds nuw i8, ptr %2, i64 88
  store i32 7, ptr %15, align 8, !tbaa !19
  %16 = getelementptr inbounds nuw i8, ptr %2, i64 32
  store ptr @archive_filter_uuencode_open, ptr %16, align 8, !tbaa !20
  %17 = getelementptr inbounds nuw i8, ptr %2, i64 24
  store ptr @archive_filter_uuencode_options, ptr %17, align 8, !tbaa !21
  %18 = getelementptr inbounds nuw i8, ptr %2, i64 40
  store ptr @archive_filter_uuencode_write, ptr %18, align 8, !tbaa !22
  %19 = getelementptr inbounds nuw i8, ptr %2, i64 56
  store ptr @archive_filter_uuencode_close, ptr %19, align 8, !tbaa !23
  %20 = getelementptr inbounds nuw i8, ptr %2, i64 64
  store ptr @archive_filter_uuencode_free, ptr %20, align 8, !tbaa !24
  br label %21

21:                                               ; preds = %1, %10, %7
  %.1 = phi i32 [ -30, %7 ], [ 0, %10 ], [ -30, %1 ]
  ret i32 %.1
}